target datalayout = "e-m:e-p270:32:32-p271:32:32-p272:64:64-i64:64-i128:128-f80:128-n8:16:32:64-S128"
target triple = "x86_64-pc-linux-gnu"

; Function Attrs: nounwind uwtable
define internal void @get_pixels_unaligned_16_c(ptr noalias noundef %0, ptr noundef %1, i64 noundef %2) #2 {
  %4 = alloca ptr, align 8
  %5 = alloca ptr, align 8
  %6 = alloca i64, align 8
  store ptr %0, ptr %4, align 8, !tbaa !38
  store ptr %1, ptr %5, align 8, !tbaa !39
  store i64 %2, ptr %6, align 8, !tbaa !40
  br label %7

7:                                                ; preds = %3
  %8 = load ptr, ptr %5, align 8, !tbaa !39
  %9 = load i64, ptr %6, align 8, !tbaa !40
  %10 = mul nsw i64 0, %9
  %11 = getelementptr inbounds i8, ptr %8, i64 %10
  %12 = load i64, ptr %11, align 1, !tbaa !41
  %13 = load ptr, ptr %4, align 8, !tbaa !38
  %14 = getelementptr inbounds i16, ptr %13, i64 0
  store i64 %12, ptr %14, align 1, !tbaa !41
  %15 = load ptr, ptr %5, align 8, !tbaa !39
  %16 = load i64, ptr %6, align 8, !tbaa !40
  %17 = mul nsw i64 0, %16
  %18 = getelementptr inbounds i8, ptr %15, i64 %17
  %19 = getelementptr inbounds i8, ptr %18, i64 8
  %20 = load i64, ptr %19, align 1, !tbaa !41
  %21 = load ptr, ptr %4, align 8, !tbaa !38
  %22 = getelementptr inbounds i16, ptr %21, i64 0
  %23 = getelementptr inbounds i8, ptr %22, i64 8
  store i64 %20, ptr %23, align 1, !tbaa !41
  br label %24

24:                                               ; preds = %7
  br label %25

25:                                               ; preds = %24
  %26 = load ptr, ptr %5, align 8, !tbaa !39
  %27 = load i64, ptr %6, align 8, !tbaa !40
  %28 = mul nsw i64 1, %27
  %29 = getelementptr inbounds i8, ptr %26, i64 %28
  %30 = load i64, ptr %29, align 1, !tbaa !41
  %31 = load ptr, ptr %4, align 8, !tbaa !38
  %32 = getelementptr inbounds i16, ptr %31, i64 8
  store i64 %30, ptr %32, align 1, !tbaa !41
  %33 = load ptr, ptr %5, align 8, !tbaa !39
  %34 = load i64, ptr %6, align 8, !tbaa !40
  %35 = mul nsw i64 1, %34
  %36 = getelementptr inbounds i8, ptr %33, i64 %35
  %37 = getelementptr inbounds i8, ptr %36, i64 8
  %38 = load i64, ptr %37, align 1, !tbaa !41
  %39 = load ptr, ptr %4, align 8, !tbaa !38
  %40 = getelementptr inbounds i16, ptr %39, i64 8
  %41 = getelementptr inbounds i8, ptr %40, i64 8
  store i64 %38, ptr %41, align 1, !tbaa !41
  br label %42

42:                                               ; preds = %25
  br label %43

43:                                               ; preds = %42
  %44 = load ptr, ptr %5, align 8, !tbaa !39
  %45 = load i64, ptr %6, align 8, !tbaa !40
  %46 = mul nsw i64 2, %45
  %47 = getelementptr inbounds i8, ptr %44, i64 %46
  %48 = load i64, ptr %47, align 1, !tbaa !41
  %49 = load ptr, ptr %4, align 8, !tbaa !38
  %50 = getelementptr inbounds i16, ptr %49, i64 16
  store i64 %48, ptr %50, align 1, !tbaa !41
  %51 = load ptr, ptr %5, align 8, !tbaa !39
  %52 = load i64, ptr %6, align 8, !tbaa !40
  %53 = mul nsw i64 2, %52
  %54 = getelementptr inbounds i8, ptr %51, i64 %53
  %55 = getelementptr inbounds i8, ptr %54, i64 8
  %56 = load i64, ptr %55, align 1, !tbaa !41
  %57 = load ptr, ptr %4, align 8, !tbaa !38
  %58 = getelementptr inbounds i16, ptr %57, i64 16
  %59 = getelementptr inbounds i8, ptr %58, i64 8
  store i64 %56, ptr %59, align 1, !tbaa !41
  br label %60

60:                                               ; preds = %43
  br label %61

61:                                               ; preds = %60
  %62 = load ptr, ptr %5, align 8, !tbaa !39
  %63 = load i64, ptr %6, align 8, !tbaa !40
  %64 = mul nsw i64 3, %63
  %65 = getelementptr inbounds i8, ptr %62, i64 %64
  %66 = load i64, ptr %65, align 1, !tbaa !41
  %67 = load ptr, ptr %4, align 8, !tbaa !38
  %68 = getelementptr inbounds i16, ptr %67, i64 24
  store i64 %66, ptr %68, align 1, !tbaa !41
  %69 = load ptr, ptr %5, align 8, !tbaa !39
  %70 = load i64, ptr %6, align 8, !tbaa !40
  %71 = mul nsw i64 3, %70
  %72 = getelementptr inbounds i8, ptr %69, i64 %71
  %73 = getelementptr inbounds i8, ptr %72, i64 8
  %74 = load i64, ptr %73, align 1, !tbaa !41
  %75 = load ptr, ptr %4, align 8, !tbaa !38
  %76 = getelementptr inbounds i16, ptr %75, i64 24
  %77 = getelementptr inbounds i8, ptr %76, i64 8
  store i64 %74, ptr %77, align 1, !tbaa !41
  br label %78

78:                                               ; preds = %61
  br label %79

79:                                               ; preds = %78
  %80 = load ptr, ptr %5, align 8, !tbaa !39
  %81 = load i64, ptr %6, align 8, !tbaa !40
  %82 = mul nsw i64 4, %81
  %83 = getelementptr inbounds i8, ptr %80, i64 %82
  %84 = load i64, ptr %83, align 1, !tbaa !41
  %85 = load ptr, ptr %4, align 8, !tbaa !38
  %86 = getelementptr inbounds i16, ptr %85, i64 32
  store i64 %84, ptr %86, align 1, !tbaa !41
  %87 = load ptr, ptr %5, align 8, !tbaa !39
  %88 = load i64, ptr %6, align 8, !tbaa !40
  %89 = mul nsw i64 4, %88
  %90 = getelementptr inbounds i8, ptr %87, i64 %89
  %91 = getelementptr inbounds i8, ptr %90, i64 8
  %92 = load i64, ptr %91, align 1, !tbaa !41
  %93 = load ptr, ptr %4, align 8, !tbaa !38
  %94 = getelementptr inbounds i16, ptr %93, i64 32
  %95 = getelementptr inbounds i8, ptr %94, i64 8
  store i64 %92, ptr %95, align 1, !tbaa !41
  br label %96

96:                                               ; preds = %79
  br label %97

97:                                               ; preds = %96
  %98 = load ptr, ptr %5, align 8, !tbaa !39
  %99 = load i64, ptr %6, align 8, !tbaa !40
  %100 = mul nsw i64 5, %99
  %101 = getelementptr inbounds i8, ptr %98, i64 %100
  %102 = load i64, ptr %101, align 1, !tbaa !41
  %103 = load ptr, ptr %4, align 8, !tbaa !38
  %104 = getelementptr inbounds i16, ptr %103, i64 40
  store i64 %102, ptr %104, align 1, !tbaa !41
  %105 = load ptr, ptr %5, align 8, !tbaa !39
  %106 = load i64, ptr %6, align 8, !tbaa !40
  %107 = mul nsw i64 5, %106
  %108 = getelementptr inbounds i8, ptr %105, i64 %107
  %109 = getelementptr inbounds i8, ptr %108, i64 8
  %110 = load i64, ptr %109, align 1, !tbaa !41
  %111 = load ptr, ptr %4, align 8, !tbaa !38
  %112 = getelementptr inbounds i16, ptr %111, i64 40
  %113 = getelementptr inbounds i8, ptr %112, i64 8
  store i64 %110, ptr %113, align 1, !tbaa !41
  br label %114

114:                                              ; preds = %97
  br label %115

115:                                              ; preds = %114
  %116 = load ptr, ptr %5, align 8, !tbaa !39
  %117 = load i64, ptr %6, align 8, !tbaa !40
  %118 = mul nsw i64 6, %117
  %119 = getelementptr inbounds i8, ptr %116, i64 %118
  %120 = load i64, ptr %119, align 1, !tbaa !41
  %121 = load ptr, ptr %4, align 8, !tbaa !38
  %122 = getelementptr inbounds i16, ptr %121, i64 48
  store i64 %120, ptr %122, align 1, !tbaa !41
  %123 = load ptr, ptr %5, align 8, !tbaa !39
  %124 = load i64, ptr %6, align 8, !tbaa !40
  %125 = mul nsw i64 6, %124
  %126 = getelementptr inbounds i8, ptr %123, i64 %125
  %127 = getelementptr inbounds i8, ptr %126, i64 8
  %128 = load i64, ptr %127, align 1, !tbaa !41
  %129 = load ptr, ptr %4, align 8, !tbaa !38
  %130 = getelementptr inbounds i16, ptr %129, i64 48
  %131 = getelementptr inbounds i8, ptr %130, i64 8
  store i64 %128, ptr %131, align 1, !tbaa !41
  br label %132

132:                                              ; preds = %115
  br label %133

133:                                              ; preds = %132
  %134 = load ptr, ptr %5, align 8, !tbaa !39
  %135 = load i64, ptr %6, align 8, !tbaa !40
  %136 = mul nsw i64 7, %135
  %137 = getelementptr inbounds i8, ptr %134, i64 %136
  %138 = load i64, ptr %137, align 1, !tbaa !41
  %139 = load ptr, ptr %4, align 8, !tbaa !38
  %140 = getelementptr inbounds i16, ptr %139, i64 56
  store i64 %138, ptr %140, align 1, !tbaa !41
  %141 = load ptr, ptr %5, align 8, !tbaa !39
  %142 = load i64, ptr %6, align 8, !tbaa !40
  %143 = mul nsw i64 7, %142
  %144 = getelementptr inbounds i8, ptr %141, i64 %143
  %145 = getelementptr inbounds i8, ptr %144, i64 8
  %146 = load i64, ptr %145, align 1, !tbaa !41
  %147 = load ptr, ptr %4, align 8, !tbaa !38
  %148 = getelementptr inbounds i16, ptr %147, i64 56
  %149 = getelementptr inbounds i8, ptr %148, i64 8
  store i64 %146, ptr %149, align 1, !tbaa !41
  br label %150

150:                                              ; preds = %133
  ret void
}