; Function Attrs: mustprogress nofree norecurse nosync nounwind willreturn memory(argmem: readwrite) uwtable
define internal void @get_pixels_unaligned_16_c(ptr noalias noundef writeonly captures(none) initializes((0, 128)) %0, ptr noundef readonly captures(none) %1, i64 noundef %2) #2 {
  %4 = load i64, ptr %1, align 1, !tbaa !33
  store i64 %4, ptr %0, align 1, !tbaa !33
  %5 = getelementptr inbounds nuw i8, ptr %1, i64 8
  %6 = load i64, ptr %5, align 1, !tbaa !33
  %7 = getelementptr inbounds nuw i8, ptr %0, i64 8
  store i64 %6, ptr %7, align 1, !tbaa !33
  %8 = getelementptr inbounds i8, ptr %1, i64 %2
  %9 = load i64, ptr %8, align 1, !tbaa !33
  %10 = getelementptr inbounds nuw i8, ptr %0, i64 16
  store i64 %9, ptr %10, align 1, !tbaa !33
  %11 = getelementptr inbounds nuw i8, ptr %8, i64 8
  %12 = load i64, ptr %11, align 1, !tbaa !33
  %13 = getelementptr inbounds nuw i8, ptr %0, i64 24
  store i64 %12, ptr %13, align 1, !tbaa !33
  %14 = shl nsw i64 %2, 1
  %15 = getelementptr inbounds i8, ptr %1, i64 %14
  %16 = load i64, ptr %15, align 1, !tbaa !33
  %17 = getelementptr inbounds nuw i8, ptr %0, i64 32
  store i64 %16, ptr %17, align 1, !tbaa !33
  %18 = getelementptr inbounds nuw i8, ptr %15, i64 8
  %19 = load i64, ptr %18, align 1, !tbaa !33
  %20 = getelementptr inbounds nuw i8, ptr %0, i64 40
  store i64 %19, ptr %20, align 1, !tbaa !33
  %21 = mul nsw i64 %2, 3
  %22 = getelementptr inbounds i8, ptr %1, i64 %21
  %23 = load i64, ptr %22, align 1, !tbaa !33
  %24 = getelementptr inbounds nuw i8, ptr %0, i64 48
  store i64 %23, ptr %24, align 1, !tbaa !33
  %25 = getelementptr inbounds nuw i8, ptr %22, i64 8
  %26 = load i64, ptr %25, align 1, !tbaa !33
  %27 = getelementptr inbounds nuw i8, ptr %0, i64 56
  store i64 %26, ptr %27, align 1, !tbaa !33
  %28 = shl nsw i64 %2, 2
  %29 = getelementptr inbounds i8, ptr %1, i64 %28
  %30 = load i64, ptr %29, align 1, !tbaa !33
  %31 = getelementptr inbounds nuw i8, ptr %0, i64 64
  store i64 %30, ptr %31, align 1, !tbaa !33
  %32 = getelementptr inbounds nuw i8, ptr %29, i64 8
  %33 = load i64, ptr %32, align 1, !tbaa !33
  %34 = getelementptr inbounds nuw i8, ptr %0, i64 72
  store i64 %33, ptr %34, align 1, !tbaa !33
  %35 = mul nsw i64 %2, 5
  %36 = getelementptr inbounds i8, ptr %1, i64 %35
  %37 = load i64, ptr %36, align 1, !tbaa !33
  %38 = getelementptr inbounds nuw i8, ptr %0, i64 80
  store i64 %37, ptr %38, align 1, !tbaa !33
  %39 = getelementptr inbounds nuw i8, ptr %36, i64 8
  %40 = load i64, ptr %39, align 1, !tbaa !33
  %41 = getelementptr inbounds nuw i8, ptr %0, i64 88
  store i64 %40, ptr %41, align 1, !tbaa !33
  %42 = mul nsw i64 %2, 6
  %43 = getelementptr inbounds i8, ptr %1, i64 %42
  %44 = load i64, ptr %43, align 1, !tbaa !33
  %45 = getelementptr inbounds nuw i8, ptr %0, i64 96
  store i64 %44, ptr %45, align 1, !tbaa !33
  %46 = getelementptr inbounds nuw i8, ptr %43, i64 8
  %47 = load i64, ptr %46, align 1, !tbaa !33
  %48 = getelementptr inbounds nuw i8, ptr %0, i64 104
  store i64 %47, ptr %48, align 1, !tbaa !33
  %49 = mul nsw i64 %2, 7
  %50 = getelementptr inbounds i8, ptr %1, i64 %49
  %51 = load i64, ptr %50, align 1, !tbaa !33
  %52 = getelementptr inbounds nuw i8, ptr %0, i64 112
  store i64 %51, ptr %52, align 1, !tbaa !33
  %53 = getelementptr inbounds nuw i8, ptr %50, i64 8
  %54 = load i64, ptr %53, align 1, !tbaa !33
  %55 = getelementptr inbounds nuw i8, ptr %0, i64 120
  store i64 %54, ptr %55, align 1, !tbaa !33
  ret void
}